target datalayout = "e-m:e-p270:32:32-p271:32:32-p272:64:64-i64:64-i128:128-f80:128-n8:16:32:64-S128"
target triple = "x86_64-pc-linux-gnu"

%class.btBU_Simplex1to4 = type { %class.btPolyhedralConvexAabbCachingShape.base, i32, [4 x %class.btVector3] }
%class.btPolyhedralConvexAabbCachingShape.base = type <{ %class.btPolyhedralConvexShape, %class.btVector3, %class.btVector3, i8 }>
%class.btPolyhedralConvexShape = type { %class.btConvexInternalShape, ptr }
%class.btConvexInternalShape = type { %class.btConvexShape, %class.btVector3, %class.btVector3, float, float }
%class.btConvexShape = type { %class.btCollisionShape }
%class.btCollisionShape = type { ptr, i32, ptr, i32, i32 }
%class.btVector3 = type { [4 x float] }

; Function Attrs: inlinehint mustprogress nounwind uwtable
define linkonce_odr dso_local void @_ZN9btVector3C2Ev(ptr noundef nonnull align 4 dereferenceable(16) %0) unnamed_addr #4 comdat align 2 {
  %2 = alloca ptr, align 8
  store ptr %0, ptr %2, align 8, !tbaa !28
  ret void
}

; Function Attrs: mustprogress uwtable
define dso_local void @_ZN16btBU_Simplex1to4C2Ev(ptr noundef nonnull align 8 dereferenceable(184) %0) unnamed_addr #2 align 2 personality ptr @__gxx_personality_v0 {
  %2 = alloca ptr, align 8
  %3 = alloca ptr, align 8
  %4 = alloca i32, align 4
  store ptr %0, ptr %2, align 8, !tbaa !12
  %5 = load ptr, ptr %2, align 8
  call void @_ZN34btPolyhedralConvexAabbCachingShapeC2Ev(ptr noundef nonnull align 8 dereferenceable(113) %5)
  store ptr getelementptr inbounds inrange(-16, 264) ({ [35 x ptr] }, ptr @_ZTV16btBU_Simplex1to4, i32 0, i32 0, i32 2), ptr %5, align 8, !tbaa !14
  %6 = getelementptr inbounds nuw %class.btBU_Simplex1to4, ptr %5, i32 0, i32 1
  store i32 0, ptr %6, align 4, !tbaa !16
  %7 = getelementptr inbounds nuw %class.btBU_Simplex1to4, ptr %5, i32 0, i32 2
  %8 = getelementptr inbounds [4 x %class.btVector3], ptr %7, i32 0, i32 0
  %9 = getelementptr inbounds %class.btVector3, ptr %8, i64 4
  br label %10

10:                                               ; preds = %12, %1
  %11 = phi ptr [ %8, %1 ], [ %13, %12 ]
  invoke void @_ZN9btVector3C2Ev(ptr noundef nonnull align 4 dereferenceable(16) %11)
          to label %12 unwind label %17

12:                                               ; preds = %10
  %13 = getelementptr inbounds %class.btVector3, ptr %11, i64 1
  %14 = icmp eq ptr %13, %9
  br i1 %14, label %15, label %10

15:                                               ; preds = %12
  %16 = getelementptr inbounds nuw %class.btCollisionShape, ptr %5, i32 0, i32 1
  store i32 2, ptr %16, align 8, !tbaa !27
  ret void

17:                                               ; preds = %10
  %18 = landingpad { ptr, i32 }
          cleanup
  %19 = extractvalue { ptr, i32 } %18, 0
  store ptr %19, ptr %3, align 8
  %20 = extractvalue { ptr, i32 } %18, 1
  store i32 %20, ptr %4, align 4
  call void @_ZN23btPolyhedralConvexShapeD2Ev(ptr noundef nonnull align 8 dereferenceable(113) %5) #10
  br label %21

21:                                               ; preds = %17
  %22 = load ptr, ptr %3, align 8
  %23 = load i32, ptr %4, align 4
  %24 = insertvalue { ptr, i32 } poison, ptr %22, 0
  %25 = insertvalue { ptr, i32 } %24, i32 %23, 1
  resume { ptr, i32 } %25
}