; Function Attrs: mustprogress uwtable
define dso_local void @_ZN16btBU_Simplex1to4C2Ev(ptr noundef nonnull align 8 dereferenceable(184) %0) unnamed_addr #0 align 2 personality ptr @__gxx_personality_v0 {
  tail call void @_ZN34btPolyhedralConvexAabbCachingShapeC2Ev(ptr noundef nonnull align 8 dereferenceable(113) %0)
  store ptr getelementptr inbounds nuw inrange(-16, 264) (i8, ptr @_ZTV16btBU_Simplex1to4, i64 16), ptr %0, align 8, !tbaa !4
  %2 = getelementptr inbounds nuw i8, ptr %0, i64 116
  store i32 0, ptr %2, align 4, !tbaa !7
  %3 = getelementptr inbounds nuw i8, ptr %0, i64 8
  store i32 2, ptr %3, align 8, !tbaa !21
  ret void
}